; Function Attrs: mustprogress nounwind uwtable
define internal fastcc void @"_ZSt22__stable_sort_adaptiveIPPKN5clang13CXXRecordDeclES4_lN9__gnu_cxx5__ops15_Iter_comp_iterIZL16DumpRecordLayoutRN4llvm11raw_ostreamEPKNS0_10RecordDeclERKNS0_10ASTContextENS0_9CharUnitsEjPKcbbE3$_0EEEvT_SM_T0_T1_T2_"(ptr noundef %0, ptr noundef %1, ptr noundef %2, i64 noundef %3, ptr %4) unnamed_addr #0 {
  %6 = ptrtoint ptr %1 to i64
  %7 = ptrtoint ptr %0 to i64
  %8 = sub i64 %6, %7
  %9 = ashr exact i64 %8, 3
  %10 = add nsw i64 %9, 1
  %11 = sdiv i64 %10, 2
  %12 = getelementptr inbounds ptr, ptr %0, i64 %11
  %13 = icmp sgt i64 %11, %3
  br i1 %13, label %14, label %15

14:                                               ; preds = %5
  tail call fastcc void @"_ZSt22__stable_sort_adaptiveIPPKN5clang13CXXRecordDeclES4_lN9__gnu_cxx5__ops15_Iter_comp_iterIZL16DumpRecordLayoutRN4llvm11raw_ostreamEPKNS0_10RecordDeclERKNS0_10ASTContextENS0_9CharUnitsEjPKcbbE3$_0EEEvT_SM_T0_T1_T2_"(ptr noundef %0, ptr noundef %12, ptr noundef %2, i64 noundef %3, ptr %4)
  tail call fastcc void @"_ZSt22__stable_sort_adaptiveIPPKN5clang13CXXRecordDeclES4_lN9__gnu_cxx5__ops15_Iter_comp_iterIZL16DumpRecordLayoutRN4llvm11raw_ostreamEPKNS0_10RecordDeclERKNS0_10ASTContextENS0_9CharUnitsEjPKcbbE3$_0EEEvT_SM_T0_T1_T2_"(ptr noundef %12, ptr noundef %1, ptr noundef %2, i64 noundef %3, ptr %4)
  %.pre = ptrtoint ptr %12 to i64
  %.pre42 = sub i64 %6, %.pre
  %.pre44 = ashr exact i64 %.pre42, 3
  br label %"_ZSt24__merge_sort_with_bufferIPPKN5clang13CXXRecordDeclES4_N9__gnu_cxx5__ops15_Iter_comp_iterIZL16DumpRecordLayoutRN4llvm11raw_ostreamEPKNS0_10RecordDeclERKNS0_10ASTContextENS0_9CharUnitsEjPKcbbE3$_0EEEvT_SM_T0_T1_.exit39"

15:                                               ; preds = %5
  %16 = ptrtoint ptr %12 to i64
  %.idx = shl nsw i64 %11, 3
  %17 = getelementptr inbounds i8, ptr %2, i64 %.idx
  %18 = icmp sgt i64 %9, 12
  br i1 %18, label %.lr.ph.i.i, label %"_ZSt22__chunk_insertion_sortIPPKN5clang13CXXRecordDeclElN9__gnu_cxx5__ops15_Iter_comp_iterIZL16DumpRecordLayoutRN4llvm11raw_ostreamEPKNS0_10RecordDeclERKNS0_10ASTContextENS0_9CharUnitsEjPKcbbE3$_0EEEvT_SM_T0_T1_.exit.i.thread"

"_ZSt22__chunk_insertion_sortIPPKN5clang13CXXRecordDeclElN9__gnu_cxx5__ops15_Iter_comp_iterIZL16DumpRecordLayoutRN4llvm11raw_ostreamEPKNS0_10RecordDeclERKNS0_10ASTContextENS0_9CharUnitsEjPKcbbE3$_0EEEvT_SM_T0_T1_.exit.i.thread": ; preds = %15
  tail call fastcc void @"_ZSt16__insertion_sortIPPKN5clang13CXXRecordDeclEN9__gnu_cxx5__ops15_Iter_comp_iterIZL16DumpRecordLayoutRN4llvm11raw_ostreamEPKNS0_10RecordDeclERKNS0_10ASTContextENS0_9CharUnitsEjPKcbbE3$_0EEEvT_SM_T0_"(ptr noundef %0, ptr noundef %12, ptr %4)
  br label %"_ZSt24__merge_sort_with_bufferIPPKN5clang13CXXRecordDeclES4_N9__gnu_cxx5__ops15_Iter_comp_iterIZL16DumpRecordLayoutRN4llvm11raw_ostreamEPKNS0_10RecordDeclERKNS0_10ASTContextENS0_9CharUnitsEjPKcbbE3$_0EEEvT_SM_T0_T1_.exit"

.lr.ph.i.i:                                       ; preds = %15, %.lr.ph.i.i
  %.012.i.i = phi ptr [ %19, %.lr.ph.i.i ], [ %0, %15 ]
  %19 = getelementptr inbounds nuw i8, ptr %.012.i.i, i64 56
  tail call fastcc void @"_ZSt16__insertion_sortIPPKN5clang13CXXRecordDeclEN9__gnu_cxx5__ops15_Iter_comp_iterIZL16DumpRecordLayoutRN4llvm11raw_ostreamEPKNS0_10RecordDeclERKNS0_10ASTContextENS0_9CharUnitsEjPKcbbE3$_0EEEvT_SM_T0_"(ptr noundef %.012.i.i, ptr noundef nonnull %19, ptr %4)
  %20 = ptrtoint ptr %19 to i64
  %21 = sub i64 %16, %20
  %22 = icmp sgt i64 %21, 48
  br i1 %22, label %.lr.ph.i.i, label %"_ZSt22__chunk_insertion_sortIPPKN5clang13CXXRecordDeclElN9__gnu_cxx5__ops15_Iter_comp_iterIZL16DumpRecordLayoutRN4llvm11raw_ostreamEPKNS0_10RecordDeclERKNS0_10ASTContextENS0_9CharUnitsEjPKcbbE3$_0EEEvT_SM_T0_T1_.exit.i", !llvm.loop !204

"_ZSt22__chunk_insertion_sortIPPKN5clang13CXXRecordDeclElN9__gnu_cxx5__ops15_Iter_comp_iterIZL16DumpRecordLayoutRN4llvm11raw_ostreamEPKNS0_10RecordDeclERKNS0_10ASTContextENS0_9CharUnitsEjPKcbbE3$_0EEEvT_SM_T0_T1_.exit.i": ; preds = %.lr.ph.i.i
  tail call fastcc void @"_ZSt16__insertion_sortIPPKN5clang13CXXRecordDeclEN9__gnu_cxx5__ops15_Iter_comp_iterIZL16DumpRecordLayoutRN4llvm11raw_ostreamEPKNS0_10RecordDeclERKNS0_10ASTContextENS0_9CharUnitsEjPKcbbE3$_0EEEvT_SM_T0_"(ptr noundef nonnull %19, ptr noundef %12, ptr %4)
  %23 = icmp sgt i64 %9, 14
  br i1 %23, label %.lr.ph.i, label %"_ZSt24__merge_sort_with_bufferIPPKN5clang13CXXRecordDeclES4_N9__gnu_cxx5__ops15_Iter_comp_iterIZL16DumpRecordLayoutRN4llvm11raw_ostreamEPKNS0_10RecordDeclERKNS0_10ASTContextENS0_9CharUnitsEjPKcbbE3$_0EEEvT_SM_T0_T1_.exit"

.lr.ph.i:                                         ; preds = %"_ZSt22__chunk_insertion_sortIPPKN5clang13CXXRecordDeclElN9__gnu_cxx5__ops15_Iter_comp_iterIZL16DumpRecordLayoutRN4llvm11raw_ostreamEPKNS0_10RecordDeclERKNS0_10ASTContextENS0_9CharUnitsEjPKcbbE3$_0EEEvT_SM_T0_T1_.exit.i", %.lr.ph.i
  %.021.i = phi i64 [ %25, %.lr.ph.i ], [ 7, %"_ZSt22__chunk_insertion_sortIPPKN5clang13CXXRecordDeclElN9__gnu_cxx5__ops15_Iter_comp_iterIZL16DumpRecordLayoutRN4llvm11raw_ostreamEPKNS0_10RecordDeclERKNS0_10ASTContextENS0_9CharUnitsEjPKcbbE3$_0EEEvT_SM_T0_T1_.exit.i" ]
  tail call fastcc void @"_ZSt17__merge_sort_loopIPPKN5clang13CXXRecordDeclES4_lN9__gnu_cxx5__ops15_Iter_comp_iterIZL16DumpRecordLayoutRN4llvm11raw_ostreamEPKNS0_10RecordDeclERKNS0_10ASTContextENS0_9CharUnitsEjPKcbbE3$_0EEEvT_SM_T0_T1_T2_"(ptr noundef %0, ptr noundef %12, ptr noundef %2, i64 noundef %.021.i, ptr %4)
  %24 = shl nuw nsw i64 %.021.i, 1
  tail call fastcc void @"_ZSt17__merge_sort_loopIPPKN5clang13CXXRecordDeclES4_lN9__gnu_cxx5__ops15_Iter_comp_iterIZL16DumpRecordLayoutRN4llvm11raw_ostreamEPKNS0_10RecordDeclERKNS0_10ASTContextENS0_9CharUnitsEjPKcbbE3$_0EEEvT_SM_T0_T1_T2_"(ptr noundef %2, ptr noundef %17, ptr noundef %0, i64 noundef %24, ptr %4)
  %25 = shl nsw i64 %.021.i, 2
  %26 = icmp slt i64 %25, %11
  br i1 %26, label %.lr.ph.i, label %"_ZSt24__merge_sort_with_bufferIPPKN5clang13CXXRecordDeclES4_N9__gnu_cxx5__ops15_Iter_comp_iterIZL16DumpRecordLayoutRN4llvm11raw_ostreamEPKNS0_10RecordDeclERKNS0_10ASTContextENS0_9CharUnitsEjPKcbbE3$_0EEEvT_SM_T0_T1_.exit", !llvm.loop !205

"_ZSt24__merge_sort_with_bufferIPPKN5clang13CXXRecordDeclES4_N9__gnu_cxx5__ops15_Iter_comp_iterIZL16DumpRecordLayoutRN4llvm11raw_ostreamEPKNS0_10RecordDeclERKNS0_10ASTContextENS0_9CharUnitsEjPKcbbE3$_0EEEvT_SM_T0_T1_.exit": ; preds = %.lr.ph.i, %"_ZSt22__chunk_insertion_sortIPPKN5clang13CXXRecordDeclElN9__gnu_cxx5__ops15_Iter_comp_iterIZL16DumpRecordLayoutRN4llvm11raw_ostreamEPKNS0_10RecordDeclERKNS0_10ASTContextENS0_9CharUnitsEjPKcbbE3$_0EEEvT_SM_T0_T1_.exit.i.thread", %"_ZSt22__chunk_insertion_sortIPPKN5clang13CXXRecordDeclElN9__gnu_cxx5__ops15_Iter_comp_iterIZL16DumpRecordLayoutRN4llvm11raw_ostreamEPKNS0_10RecordDeclERKNS0_10ASTContextENS0_9CharUnitsEjPKcbbE3$_0EEEvT_SM_T0_T1_.exit.i"
  %27 = sub i64 %6, %16
  %28 = ashr exact i64 %27, 3
  %29 = getelementptr inbounds i8, ptr %2, i64 %27
  %30 = icmp sgt i64 %27, 48
  br i1 %30, label %.lr.ph.i.i37, label %"_ZSt22__chunk_insertion_sortIPPKN5clang13CXXRecordDeclElN9__gnu_cxx5__ops15_Iter_comp_iterIZL16DumpRecordLayoutRN4llvm11raw_ostreamEPKNS0_10RecordDeclERKNS0_10ASTContextENS0_9CharUnitsEjPKcbbE3$_0EEEvT_SM_T0_T1_.exit.i33"

.lr.ph.i.i37:                                     ; preds = %"_ZSt24__merge_sort_with_bufferIPPKN5clang13CXXRecordDeclES4_N9__gnu_cxx5__ops15_Iter_comp_iterIZL16DumpRecordLayoutRN4llvm11raw_ostreamEPKNS0_10RecordDeclERKNS0_10ASTContextENS0_9CharUnitsEjPKcbbE3$_0EEEvT_SM_T0_T1_.exit", %.lr.ph.i.i37
  %.012.i.i38 = phi ptr [ %31, %.lr.ph.i.i37 ], [ %12, %"_ZSt24__merge_sort_with_bufferIPPKN5clang13CXXRecordDeclES4_N9__gnu_cxx5__ops15_Iter_comp_iterIZL16DumpRecordLayoutRN4llvm11raw_ostreamEPKNS0_10RecordDeclERKNS0_10ASTContextENS0_9CharUnitsEjPKcbbE3$_0EEEvT_SM_T0_T1_.exit" ]
  %31 = getelementptr inbounds nuw i8, ptr %.012.i.i38, i64 56
  tail call fastcc void @"_ZSt16__insertion_sortIPPKN5clang13CXXRecordDeclEN9__gnu_cxx5__ops15_Iter_comp_iterIZL16DumpRecordLayoutRN4llvm11raw_ostreamEPKNS0_10RecordDeclERKNS0_10ASTContextENS0_9CharUnitsEjPKcbbE3$_0EEEvT_SM_T0_"(ptr noundef %.012.i.i38, ptr noundef nonnull %31, ptr %4)
  %32 = ptrtoint ptr %31 to i64
  %33 = sub i64 %6, %32
  %34 = icmp sgt i64 %33, 48
  br i1 %34, label %.lr.ph.i.i37, label %"_ZSt22__chunk_insertion_sortIPPKN5clang13CXXRecordDeclElN9__gnu_cxx5__ops15_Iter_comp_iterIZL16DumpRecordLayoutRN4llvm11raw_ostreamEPKNS0_10RecordDeclERKNS0_10ASTContextENS0_9CharUnitsEjPKcbbE3$_0EEEvT_SM_T0_T1_.exit.i33", !llvm.loop !204

"_ZSt22__chunk_insertion_sortIPPKN5clang13CXXRecordDeclElN9__gnu_cxx5__ops15_Iter_comp_iterIZL16DumpRecordLayoutRN4llvm11raw_ostreamEPKNS0_10RecordDeclERKNS0_10ASTContextENS0_9CharUnitsEjPKcbbE3$_0EEEvT_SM_T0_T1_.exit.i33": ; preds = %.lr.ph.i.i37, %"_ZSt24__merge_sort_with_bufferIPPKN5clang13CXXRecordDeclES4_N9__gnu_cxx5__ops15_Iter_comp_iterIZL16DumpRecordLayoutRN4llvm11raw_ostreamEPKNS0_10RecordDeclERKNS0_10ASTContextENS0_9CharUnitsEjPKcbbE3$_0EEEvT_SM_T0_T1_.exit"
  %.0.lcssa.i.i34 = phi ptr [ %12, %"_ZSt24__merge_sort_with_bufferIPPKN5clang13CXXRecordDeclES4_N9__gnu_cxx5__ops15_Iter_comp_iterIZL16DumpRecordLayoutRN4llvm11raw_ostreamEPKNS0_10RecordDeclERKNS0_10ASTContextENS0_9CharUnitsEjPKcbbE3$_0EEEvT_SM_T0_T1_.exit" ], [ %31, %.lr.ph.i.i37 ]
  tail call fastcc void @"_ZSt16__insertion_sortIPPKN5clang13CXXRecordDeclEN9__gnu_cxx5__ops15_Iter_comp_iterIZL16DumpRecordLayoutRN4llvm11raw_ostreamEPKNS0_10RecordDeclERKNS0_10ASTContextENS0_9CharUnitsEjPKcbbE3$_0EEEvT_SM_T0_"(ptr noundef %.0.lcssa.i.i34, ptr noundef %1, ptr %4)
  %35 = icmp sgt i64 %28, 7
  br i1 %35, label %.lr.ph.i35, label %"_ZSt24__merge_sort_with_bufferIPPKN5clang13CXXRecordDeclES4_N9__gnu_cxx5__ops15_Iter_comp_iterIZL16DumpRecordLayoutRN4llvm11raw_ostreamEPKNS0_10RecordDeclERKNS0_10ASTContextENS0_9CharUnitsEjPKcbbE3$_0EEEvT_SM_T0_T1_.exit39"

.lr.ph.i35:                                       ; preds = %"_ZSt22__chunk_insertion_sortIPPKN5clang13CXXRecordDeclElN9__gnu_cxx5__ops15_Iter_comp_iterIZL16DumpRecordLayoutRN4llvm11raw_ostreamEPKNS0_10RecordDeclERKNS0_10ASTContextENS0_9CharUnitsEjPKcbbE3$_0EEEvT_SM_T0_T1_.exit.i33", %.lr.ph.i35
  %.021.i36 = phi i64 [ %37, %.lr.ph.i35 ], [ 7, %"_ZSt22__chunk_insertion_sortIPPKN5clang13CXXRecordDeclElN9__gnu_cxx5__ops15_Iter_comp_iterIZL16DumpRecordLayoutRN4llvm11raw_ostreamEPKNS0_10RecordDeclERKNS0_10ASTContextENS0_9CharUnitsEjPKcbbE3$_0EEEvT_SM_T0_T1_.exit.i33" ]
  tail call fastcc void @"_ZSt17__merge_sort_loopIPPKN5clang13CXXRecordDeclES4_lN9__gnu_cxx5__ops15_Iter_comp_iterIZL16DumpRecordLayoutRN4llvm11raw_ostreamEPKNS0_10RecordDeclERKNS0_10ASTContextENS0_9CharUnitsEjPKcbbE3$_0EEEvT_SM_T0_T1_T2_"(ptr noundef %12, ptr noundef %1, ptr noundef %2, i64 noundef %.021.i36, ptr %4)
  %36 = shl nuw nsw i64 %.021.i36, 1
  tail call fastcc void @"_ZSt17__merge_sort_loopIPPKN5clang13CXXRecordDeclES4_lN9__gnu_cxx5__ops15_Iter_comp_iterIZL16DumpRecordLayoutRN4llvm11raw_ostreamEPKNS0_10RecordDeclERKNS0_10ASTContextENS0_9CharUnitsEjPKcbbE3$_0EEEvT_SM_T0_T1_T2_"(ptr noundef %2, ptr noundef %29, ptr noundef %12, i64 noundef %36, ptr %4)
  %37 = shl nsw i64 %.021.i36, 2
  %38 = icmp slt i64 %37, %28
  br i1 %38, label %.lr.ph.i35, label %"_ZSt24__merge_sort_with_bufferIPPKN5clang13CXXRecordDeclES4_N9__gnu_cxx5__ops15_Iter_comp_iterIZL16DumpRecordLayoutRN4llvm11raw_ostreamEPKNS0_10RecordDeclERKNS0_10ASTContextENS0_9CharUnitsEjPKcbbE3$_0EEEvT_SM_T0_T1_.exit39", !llvm.loop !205

"_ZSt24__merge_sort_with_bufferIPPKN5clang13CXXRecordDeclES4_N9__gnu_cxx5__ops15_Iter_comp_iterIZL16DumpRecordLayoutRN4llvm11raw_ostreamEPKNS0_10RecordDeclERKNS0_10ASTContextENS0_9CharUnitsEjPKcbbE3$_0EEEvT_SM_T0_T1_.exit39": ; preds = %.lr.ph.i35, %"_ZSt22__chunk_insertion_sortIPPKN5clang13CXXRecordDeclElN9__gnu_cxx5__ops15_Iter_comp_iterIZL16DumpRecordLayoutRN4llvm11raw_ostreamEPKNS0_10RecordDeclERKNS0_10ASTContextENS0_9CharUnitsEjPKcbbE3$_0EEEvT_SM_T0_T1_.exit.i33", %14
  %.pre-phi45 = phi i64 [ %28, %"_ZSt22__chunk_insertion_sortIPPKN5clang13CXXRecordDeclElN9__gnu_cxx5__ops15_Iter_comp_iterIZL16DumpRecordLayoutRN4llvm11raw_ostreamEPKNS0_10RecordDeclERKNS0_10ASTContextENS0_9CharUnitsEjPKcbbE3$_0EEEvT_SM_T0_T1_.exit.i33" ], [ %.pre44, %14 ], [ %28, %.lr.ph.i35 ]
  %39 = ptrtoint ptr %4 to i64
  tail call fastcc void @"_ZSt16__merge_adaptiveIPPKN5clang13CXXRecordDeclElS4_N9__gnu_cxx5__ops15_Iter_comp_iterIZL16DumpRecordLayoutRN4llvm11raw_ostreamEPKNS0_10RecordDeclERKNS0_10ASTContextENS0_9CharUnitsEjPKcbbE3$_0EEEvT_SM_SM_T0_SN_T1_SN_T2_"(ptr noundef %0, ptr noundef %12, ptr noundef %1, i64 noundef %11, i64 noundef %.pre-phi45, ptr noundef %2, i64 noundef %3, i64 %39)
  ret void
}